
Week2.elf:     file format elf32-avr

Sections:
Idx Name          Size      VMA       LMA       File off  Algn
  0 .data         00000004  00800100  00000194  00000208  2**0
                  CONTENTS, ALLOC, LOAD, DATA
  1 .text         00000194  00000000  00000000  00000074  2**1
                  CONTENTS, ALLOC, LOAD, READONLY, CODE
  2 .comment      00000030  00000000  00000000  0000020c  2**0
                  CONTENTS, READONLY
  3 .note.gnu.avr.deviceinfo 0000003c  00000000  00000000  0000023c  2**2
                  CONTENTS, READONLY
  4 .debug_aranges 00000060  00000000  00000000  00000278  2**0
                  CONTENTS, READONLY, DEBUGGING
  5 .debug_info   00000ad7  00000000  00000000  000002d8  2**0
                  CONTENTS, READONLY, DEBUGGING
  6 .debug_abbrev 000008ac  00000000  00000000  00000daf  2**0
                  CONTENTS, READONLY, DEBUGGING
  7 .debug_line   00000422  00000000  00000000  0000165b  2**0
                  CONTENTS, READONLY, DEBUGGING
  8 .debug_frame  000000c8  00000000  00000000  00001a80  2**2
                  CONTENTS, READONLY, DEBUGGING
  9 .debug_str    00000486  00000000  00000000  00001b48  2**0
                  CONTENTS, READONLY, DEBUGGING
 10 .debug_loc    000001a5  00000000  00000000  00001fce  2**0
                  CONTENTS, READONLY, DEBUGGING
 11 .debug_ranges 00000050  00000000  00000000  00002173  2**0
                  CONTENTS, READONLY, DEBUGGING

Disassembly of section .text:

00000000 <__vectors>:
   0:	45 c0       	rjmp	.+138    	; 0x8c <__ctors_end>
   2:	00 00       	nop
   4:	58 c0       	rjmp	.+176    	; 0xb6 <__bad_interrupt>
   6:	00 00       	nop
   8:	56 c0       	rjmp	.+172    	; 0xb6 <__bad_interrupt>
   a:	00 00       	nop
   c:	54 c0       	rjmp	.+168    	; 0xb6 <__bad_interrupt>
   e:	00 00       	nop
  10:	52 c0       	rjmp	.+164    	; 0xb6 <__bad_interrupt>
  12:	00 00       	nop
  14:	50 c0       	rjmp	.+160    	; 0xb6 <__bad_interrupt>
  16:	00 00       	nop
  18:	4e c0       	rjmp	.+156    	; 0xb6 <__bad_interrupt>
  1a:	00 00       	nop
  1c:	4c c0       	rjmp	.+152    	; 0xb6 <__bad_interrupt>
  1e:	00 00       	nop
  20:	4a c0       	rjmp	.+148    	; 0xb6 <__bad_interrupt>
  22:	00 00       	nop
  24:	48 c0       	rjmp	.+144    	; 0xb6 <__bad_interrupt>
  26:	00 00       	nop
  28:	46 c0       	rjmp	.+140    	; 0xb6 <__bad_interrupt>
  2a:	00 00       	nop
  2c:	44 c0       	rjmp	.+136    	; 0xb6 <__bad_interrupt>
  2e:	00 00       	nop
  30:	42 c0       	rjmp	.+132    	; 0xb6 <__bad_interrupt>
  32:	00 00       	nop
  34:	40 c0       	rjmp	.+128    	; 0xb6 <__bad_interrupt>
  36:	00 00       	nop
  38:	3e c0       	rjmp	.+124    	; 0xb6 <__bad_interrupt>
  3a:	00 00       	nop
  3c:	3c c0       	rjmp	.+120    	; 0xb6 <__bad_interrupt>
  3e:	00 00       	nop
  40:	3a c0       	rjmp	.+116    	; 0xb6 <__bad_interrupt>
  42:	00 00       	nop
  44:	38 c0       	rjmp	.+112    	; 0xb6 <__bad_interrupt>
  46:	00 00       	nop
  48:	36 c0       	rjmp	.+108    	; 0xb6 <__bad_interrupt>
  4a:	00 00       	nop
  4c:	34 c0       	rjmp	.+104    	; 0xb6 <__bad_interrupt>
  4e:	00 00       	nop
  50:	32 c0       	rjmp	.+100    	; 0xb6 <__bad_interrupt>
  52:	00 00       	nop
  54:	30 c0       	rjmp	.+96     	; 0xb6 <__bad_interrupt>
  56:	00 00       	nop
  58:	2e c0       	rjmp	.+92     	; 0xb6 <__bad_interrupt>
  5a:	00 00       	nop
  5c:	2c c0       	rjmp	.+88     	; 0xb6 <__bad_interrupt>
  5e:	00 00       	nop
  60:	2a c0       	rjmp	.+84     	; 0xb6 <__bad_interrupt>
  62:	00 00       	nop
  64:	28 c0       	rjmp	.+80     	; 0xb6 <__bad_interrupt>
  66:	00 00       	nop
  68:	26 c0       	rjmp	.+76     	; 0xb6 <__bad_interrupt>
  6a:	00 00       	nop
  6c:	24 c0       	rjmp	.+72     	; 0xb6 <__bad_interrupt>
  6e:	00 00       	nop
  70:	22 c0       	rjmp	.+68     	; 0xb6 <__bad_interrupt>
  72:	00 00       	nop
  74:	20 c0       	rjmp	.+64     	; 0xb6 <__bad_interrupt>
  76:	00 00       	nop
  78:	1e c0       	rjmp	.+60     	; 0xb6 <__bad_interrupt>
  7a:	00 00       	nop
  7c:	1c c0       	rjmp	.+56     	; 0xb6 <__bad_interrupt>
  7e:	00 00       	nop
  80:	1a c0       	rjmp	.+52     	; 0xb6 <__bad_interrupt>
  82:	00 00       	nop
  84:	18 c0       	rjmp	.+48     	; 0xb6 <__bad_interrupt>
  86:	00 00       	nop
  88:	16 c0       	rjmp	.+44     	; 0xb6 <__bad_interrupt>
	...

0000008c <__ctors_end>:
  8c:	11 24       	eor	r1, r1
  8e:	1f be       	out	0x3f, r1	; 63
  90:	cf ef       	ldi	r28, 0xFF	; 255
  92:	d0 e1       	ldi	r29, 0x10	; 16
  94:	de bf       	out	0x3e, r29	; 62
  96:	cd bf       	out	0x3d, r28	; 61

00000098 <__do_copy_data>:
  98:	11 e0       	ldi	r17, 0x01	; 1
  9a:	a0 e0       	ldi	r26, 0x00	; 0
  9c:	b1 e0       	ldi	r27, 0x01	; 1
  9e:	e4 e9       	ldi	r30, 0x94	; 148
  a0:	f1 e0       	ldi	r31, 0x01	; 1
  a2:	00 e0       	ldi	r16, 0x00	; 0
  a4:	0b bf       	out	0x3b, r16	; 59
  a6:	02 c0       	rjmp	.+4      	; 0xac <__do_copy_data+0x14>
  a8:	07 90       	elpm	r0, Z+
  aa:	0d 92       	st	X+, r0
  ac:	a4 30       	cpi	r26, 0x04	; 4
  ae:	b1 07       	cpc	r27, r17
  b0:	d9 f7       	brne	.-10     	; 0xa8 <__do_copy_data+0x10>
  b2:	63 d0       	rcall	.+198    	; 0x17a <main>
  b4:	6d c0       	rjmp	.+218    	; 0x190 <_exit>

000000b6 <__bad_interrupt>:
  b6:	a4 cf       	rjmp	.-184    	; 0x0 <__vectors>

000000b8 <wait>:
	confirmCommand();
}

void wait(int ms)
{
	for (int i = 0; i < ms; i++)
  b8:	20 e0       	ldi	r18, 0x00	; 0
  ba:	30 e0       	ldi	r19, 0x00	; 0
  bc:	08 c0       	rjmp	.+16     	; 0xce <wait+0x16>
	#else
		//round up by default
		__ticks_dc = (uint32_t)(ceil(fabs(__tmp)));
	#endif

	__builtin_avr_delay_cycles(__ticks_dc);
  be:	ef ec       	ldi	r30, 0xCF	; 207
  c0:	f7 e0       	ldi	r31, 0x07	; 7
  c2:	31 97       	sbiw	r30, 0x01	; 1
  c4:	f1 f7       	brne	.-4      	; 0xc2 <wait+0xa>
  c6:	00 c0       	rjmp	.+0      	; 0xc8 <wait+0x10>
  c8:	00 00       	nop
  ca:	2f 5f       	subi	r18, 0xFF	; 255
  cc:	3f 4f       	sbci	r19, 0xFF	; 255
  ce:	28 17       	cp	r18, r24
  d0:	39 07       	cpc	r19, r25
  d2:	ac f3       	brlt	.-22     	; 0xbe <wait+0x6>
	{
		_delay_ms(1);
	}
  d4:	08 95       	ret

000000d6 <confirmCommand>:
	write_command(0x01); //Clear display
}

void confirmCommand()
{
	PORTC |= (1<<LCD_E);
  d6:	85 b3       	in	r24, 0x15	; 21
  d8:	88 60       	ori	r24, 0x08	; 8
  da:	85 bb       	out	0x15, r24	; 21
	wait(1);
  dc:	81 e0       	ldi	r24, 0x01	; 1
  de:	90 e0       	ldi	r25, 0x00	; 0
  e0:	eb df       	rcall	.-42     	; 0xb8 <wait>
	PORTC &= ~(1<<LCD_E);
  e2:	85 b3       	in	r24, 0x15	; 21
  e4:	87 7f       	andi	r24, 0xF7	; 247
  e6:	85 bb       	out	0x15, r24	; 21
	wait(1);
  e8:	81 e0       	ldi	r24, 0x01	; 1
  ea:	90 e0       	ldi	r25, 0x00	; 0
  ec:	e5 cf       	rjmp	.-54     	; 0xb8 <wait>
  ee:	08 95       	ret

000000f0 <write_command>:
{
	write_command(0x80 + position);
}

void write_command(unsigned char byte)
{
  f0:	cf 93       	push	r28
  f2:	c8 2f       	mov	r28, r24
	// First nibble.
	PORTC = byte;
  f4:	85 bb       	out	0x15, r24	; 21
	PORTC &= ~(1<<LCD_RS);
  f6:	85 b3       	in	r24, 0x15	; 21
  f8:	8b 7f       	andi	r24, 0xFB	; 251
  fa:	85 bb       	out	0x15, r24	; 21
	confirmCommand();
  fc:	ec df       	rcall	.-40     	; 0xd6 <confirmCommand>

	// Second nibble
	PORTC = (byte<<4);
  fe:	c2 95       	swap	r28
 100:	c0 7f       	andi	r28, 0xF0	; 240
 102:	c5 bb       	out	0x15, r28	; 21
	PORTC &= ~(1<<LCD_RS);
 104:	85 b3       	in	r24, 0x15	; 21
 106:	8b 7f       	andi	r24, 0xFB	; 251
	confirmCommand();
 108:	85 bb       	out	0x15, r24	; 21
 10a:	e5 df       	rcall	.-54     	; 0xd6 <confirmCommand>
}
 10c:	cf 91       	pop	r28
 10e:	08 95       	ret

00000110 <clearDisplay>:
	write_command(0x06); //Entry mode set
}

void clearDisplay()
{
	write_command(0x01); //Clear display
 110:	81 e0       	ldi	r24, 0x01	; 1
 112:	ee cf       	rjmp	.-36     	; 0xf0 <write_command>
 114:	08 95       	ret

00000116 <set_cursor>:
	}
}

void set_cursor(int position)
{
	write_command(0x80 + position);
 116:	80 58       	subi	r24, 0x80	; 128
 118:	eb cf       	rjmp	.-42     	; 0xf0 <write_command>
 11a:	08 95       	ret

0000011c <init>:
	
	return 1;
}

void init()
{
 11c:	cf 93       	push	r28
	DDRC = 0xFF;
 11e:	8f ef       	ldi	r24, 0xFF	; 255
 120:	84 bb       	out	0x14, r24	; 20
	PORTC = 0x00;
 122:	15 ba       	out	0x15, r1	; 21

	PORTC = 0x28;	// function set
 124:	c8 e2       	ldi	r28, 0x28	; 40
 126:	c5 bb       	out	0x15, r28	; 21
	confirmCommand();
 128:	d6 df       	rcall	.-84     	; 0xd6 <confirmCommand>

	PORTC = 0x28;   // function set
	confirmCommand();
 12a:	c5 bb       	out	0x15, r28	; 21
 12c:	d4 df       	rcall	.-88     	; 0xd6 <confirmCommand>
	PORTC = 0x80;
 12e:	80 e8       	ldi	r24, 0x80	; 128
	confirmCommand();
 130:	85 bb       	out	0x15, r24	; 21

	clearDisplay();
 132:	d1 df       	rcall	.-94     	; 0xd6 <confirmCommand>

	write_command(0x0F); //Display on/off control
 134:	ed df       	rcall	.-38     	; 0x110 <clearDisplay>
 136:	8f e0       	ldi	r24, 0x0F	; 15
 138:	db df       	rcall	.-74     	; 0xf0 <write_command>
	
	write_command(0x06); //Entry mode set
 13a:	86 e0       	ldi	r24, 0x06	; 6
 13c:	d9 df       	rcall	.-78     	; 0xf0 <write_command>
 13e:	cf 91       	pop	r28
}
 140:	08 95       	ret

00000142 <write_data>:
 142:	cf 93       	push	r28
	PORTC = (byte<<4);
	PORTC &= ~(1<<LCD_RS);
	confirmCommand();
}

void write_data(unsigned char byte) {
 144:	c8 2f       	mov	r28, r24
	// First nibble.
	PORTC = byte;
 146:	85 bb       	out	0x15, r24	; 21
	PORTC |= (1<<LCD_RS);
 148:	85 b3       	in	r24, 0x15	; 21
 14a:	84 60       	ori	r24, 0x04	; 4
 14c:	85 bb       	out	0x15, r24	; 21
	confirmCommand();
 14e:	c3 df       	rcall	.-122    	; 0xd6 <confirmCommand>

	// Second nibble
	PORTC = (byte<<4);
 150:	c2 95       	swap	r28
 152:	c0 7f       	andi	r28, 0xF0	; 240
 154:	c5 bb       	out	0x15, r28	; 21
	PORTC |= (1<<LCD_RS);
 156:	85 b3       	in	r24, 0x15	; 21
 158:	84 60       	ori	r24, 0x04	; 4
	confirmCommand();
 15a:	85 bb       	out	0x15, r24	; 21
 15c:	bc df       	rcall	.-136    	; 0xd6 <confirmCommand>
}
 15e:	cf 91       	pop	r28
 160:	08 95       	ret

00000162 <display_text>:
	PORTC &= ~(1<<LCD_E);
	wait(1);
}

void display_text(char *str)
{
 162:	cf 93       	push	r28
 164:	df 93       	push	r29
 166:	ec 01       	movw	r28, r24
	for(;*str; str++)
 168:	02 c0       	rjmp	.+4      	; 0x16e <display_text+0xc>
	{
		write_data(*str);
 16a:	eb df       	rcall	.-42     	; 0x142 <write_data>
	wait(1);
}

void display_text(char *str)
{
	for(;*str; str++)
 16c:	21 96       	adiw	r28, 0x01	; 1
 16e:	88 81       	ld	r24, Y
 170:	81 11       	cpse	r24, r1
 172:	fb cf       	rjmp	.-10     	; 0x16a <display_text+0x8>
	{
		write_data(*str);
	}
}
 174:	df 91       	pop	r29
 176:	cf 91       	pop	r28
 178:	08 95       	ret

0000017a <main>:
void clearDisplay();
void wait(int);

int main(void)
{
	init();
 17a:	d0 df       	rcall	.-96     	; 0x11c <init>
	set_cursor(0);
 17c:	80 e0       	ldi	r24, 0x00	; 0
 17e:	90 e0       	ldi	r25, 0x00	; 0
 180:	ca df       	rcall	.-108    	; 0x116 <set_cursor>
	display_text("hey");
 182:	80 e0       	ldi	r24, 0x00	; 0
 184:	91 e0       	ldi	r25, 0x01	; 1
 186:	ed df       	rcall	.-38     	; 0x162 <display_text>
	
	while (1)
	{
		wait(10);
 188:	8a e0       	ldi	r24, 0x0A	; 10
 18a:	90 e0       	ldi	r25, 0x00	; 0
 18c:	95 df       	rcall	.-214    	; 0xb8 <wait>
 18e:	fc cf       	rjmp	.-8      	; 0x188 <main+0xe>

00000190 <_exit>:
 190:	f8 94       	cli

00000192 <__stop_program>:
 192:	ff cf       	rjmp	.-2      	; 0x192 <__stop_program>
